#include <math.h>
#include <stdio.h>
#include <stdlib.h>
#include <string.h>

int main()
{
	void shit(int ,int);
	int m,n;
	scanf("%d %d",&m,&n);
	shit(m,n);
	return 0;
}
void shit(int m,int n)
{
	int i,j;
	int temp;
	int a[20];
	int	b[20];
	for(i=0;i<m;i++)
	{
		scanf("%d",&a[i]);
	}
	for(j=0;j<n;j++)
	{
		scanf("%d",&b[j]);
	}
	for(i=1;i<m;i++)
	{
		for(j=0;j<m-i;j++)
		{
			if(a[j]>a[j+1])
			{
				temp=a[j];
				a[j]=a[j+1];
				a[j+1]=temp;
			}
		}
	}
	temp=0;
	for(i=1;i<n;i++)
	{
		for(j=0;j<n-i;j++)
		{
			if(b[j]>b[j+1])
			{
				temp=b[j];
				b[j]=b[j+1];
				b[j+1]=temp;
			}
		}
	}
	for(i=0;i<m;i++)
	{
		printf("%d ",a[i]);
	}
	for(j=0;j<n-1;j++)
	{
		printf("%d ",b[j]);
	}
	printf("%d",b[n-1]);
}